target datalayout = "e-m:e-p270:32:32-p271:32:32-p272:64:64-i64:64-i128:128-f80:128-n8:16:32:64-S128"
target triple = "x86_64-pc-linux-gnu"

%struct.expert_field = type { i32, i32 }

@hf_nfapi_rnti = internal global i32 0, align 4
@hf_nfapi_handle = internal global i32 0, align 4
@hf_nfapi_size = internal global i32 0, align 4
@hf_nfapi_srs_bandwidth = internal global i32 0, align 4
@hf_nfapi_frequency_domain_position = internal global i32 0, align 4
@hf_nfapi_srs_hopping_bandwidth = internal global i32 0, align 4
@hf_nfapi_transmission_comb = internal global i32 0, align 4
@hf_nfapi_i_srs = internal global i32 0, align 4
@hf_nfapi_sounding_reference_cyclic_shift = internal global i32 0, align 4
@ei_invalid_range = internal global %struct.expert_field zeroinitializer, align 4
@.str.2006 = private unnamed_addr constant [30 x i8] c"Invalid rnti value [1..65535]\00", align 1
@.str.2126 = private unnamed_addr constant [35 x i8] c"Invalid srs bandwidth value [0..3]\00", align 1
@.str.2127 = private unnamed_addr constant [49 x i8] c"Invalid frequency domain bandwidth value [0..23]\00", align 1
@.str.2128 = private unnamed_addr constant [43 x i8] c"Invalid srs hopping bandwidth value [0..3]\00", align 1
@.str.2129 = private unnamed_addr constant [39 x i8] c"Invalid transmission comb value [0..3]\00", align 1
@.str.2130 = private unnamed_addr constant [45 x i8] c"Invalid isrs/srs-configindex value [0..1023]\00", align 1
@.str.2131 = private unnamed_addr constant [54 x i8] c"Invalid sounding reference cyclic shift value [0..11]\00", align 1

; Function Attrs: nounwind uwtable
define internal void @dissect_ul_config_srs_info_rel8_value(ptr noundef %0, ptr noundef %1) #0 {
  %3 = alloca ptr, align 8
  %4 = alloca ptr, align 8
  %5 = alloca ptr, align 8
  %6 = alloca i32, align 4
  store ptr %0, ptr %3, align 8
  store ptr %1, ptr %4, align 8
  %7 = load ptr, ptr %3, align 8
  %8 = load i32, ptr @hf_nfapi_handle, align 4
  %9 = call ptr @ptvcursor_add(ptr noundef %7, i32 noundef %8, i32 noundef 4, i32 noundef 0)
  %10 = load ptr, ptr %3, align 8
  %11 = load i32, ptr @hf_nfapi_size, align 4
  %12 = call ptr @ptvcursor_add(ptr noundef %10, i32 noundef %11, i32 noundef 2, i32 noundef 0)
  %13 = load ptr, ptr %3, align 8
  %14 = load i32, ptr @hf_nfapi_rnti, align 4
  %15 = call ptr @ptvcursor_add_ret_uint(ptr noundef %13, i32 noundef %14, i32 noundef 2, i32 noundef 0, ptr noundef %6)
  store ptr %15, ptr %5, align 8
  %16 = load i32, ptr %6, align 4
  %17 = icmp ult i32 %16, 1
  br i1 %17, label %18, label %22

18:                                               ; preds = %2
  %19 = load ptr, ptr %4, align 8
  %20 = load ptr, ptr %5, align 8
  %21 = call ptr (ptr, ptr, ptr, ptr, ...) @expert_add_info_format(ptr noundef %19, ptr noundef %20, ptr noundef @ei_invalid_range, ptr noundef @.str.2006)
  br label %22

22:                                               ; preds = %18, %2
  %23 = load ptr, ptr %3, align 8
  %24 = load i32, ptr @hf_nfapi_srs_bandwidth, align 4
  %25 = call ptr @ptvcursor_add_ret_uint(ptr noundef %23, i32 noundef %24, i32 noundef 1, i32 noundef 0, ptr noundef %6)
  store ptr %25, ptr %5, align 8
  %26 = load i32, ptr %6, align 4
  %27 = icmp ugt i32 %26, 3
  br i1 %27, label %28, label %32

28:                                               ; preds = %22
  %29 = load ptr, ptr %4, align 8
  %30 = load ptr, ptr %5, align 8
  %31 = call ptr (ptr, ptr, ptr, ptr, ...) @expert_add_info_format(ptr noundef %29, ptr noundef %30, ptr noundef @ei_invalid_range, ptr noundef @.str.2126)
  br label %32

32:                                               ; preds = %28, %22
  %33 = load ptr, ptr %3, align 8
  %34 = load i32, ptr @hf_nfapi_frequency_domain_position, align 4
  %35 = call ptr @ptvcursor_add_ret_uint(ptr noundef %33, i32 noundef %34, i32 noundef 1, i32 noundef 0, ptr noundef %6)
  store ptr %35, ptr %5, align 8
  %36 = load i32, ptr %6, align 4
  %37 = icmp ugt i32 %36, 23
  br i1 %37, label %38, label %42

38:                                               ; preds = %32
  %39 = load ptr, ptr %4, align 8
  %40 = load ptr, ptr %5, align 8
  %41 = call ptr (ptr, ptr, ptr, ptr, ...) @expert_add_info_format(ptr noundef %39, ptr noundef %40, ptr noundef @ei_invalid_range, ptr noundef @.str.2127)
  br label %42

42:                                               ; preds = %38, %32
  %43 = load ptr, ptr %3, align 8
  %44 = load i32, ptr @hf_nfapi_srs_hopping_bandwidth, align 4
  %45 = call ptr @ptvcursor_add_ret_uint(ptr noundef %43, i32 noundef %44, i32 noundef 1, i32 noundef 0, ptr noundef %6)
  store ptr %45, ptr %5, align 8
  %46 = load i32, ptr %6, align 4
  %47 = icmp ugt i32 %46, 3
  br i1 %47, label %48, label %52

48:                                               ; preds = %42
  %49 = load ptr, ptr %4, align 8
  %50 = load ptr, ptr %5, align 8
  %51 = call ptr (ptr, ptr, ptr, ptr, ...) @expert_add_info_format(ptr noundef %49, ptr noundef %50, ptr noundef @ei_invalid_range, ptr noundef @.str.2128)
  br label %52

52:                                               ; preds = %48, %42
  %53 = load ptr, ptr %3, align 8
  %54 = load i32, ptr @hf_nfapi_transmission_comb, align 4
  %55 = call ptr @ptvcursor_add_ret_uint(ptr noundef %53, i32 noundef %54, i32 noundef 1, i32 noundef 0, ptr noundef %6)
  store ptr %55, ptr %5, align 8
  %56 = load i32, ptr %6, align 4
  %57 = icmp ugt i32 %56, 3
  br i1 %57, label %58, label %62

58:                                               ; preds = %52
  %59 = load ptr, ptr %4, align 8
  %60 = load ptr, ptr %5, align 8
  %61 = call ptr (ptr, ptr, ptr, ptr, ...) @expert_add_info_format(ptr noundef %59, ptr noundef %60, ptr noundef @ei_invalid_range, ptr noundef @.str.2129)
  br label %62

62:                                               ; preds = %58, %52
  %63 = load ptr, ptr %3, align 8
  %64 = load i32, ptr @hf_nfapi_i_srs, align 4
  %65 = call ptr @ptvcursor_add_ret_uint(ptr noundef %63, i32 noundef %64, i32 noundef 2, i32 noundef 0, ptr noundef %6)
  store ptr %65, ptr %5, align 8
  %66 = load i32, ptr %6, align 4
  %67 = icmp ugt i32 %66, 1023
  br i1 %67, label %68, label %72

68:                                               ; preds = %62
  %69 = load ptr, ptr %4, align 8
  %70 = load ptr, ptr %5, align 8
  %71 = call ptr (ptr, ptr, ptr, ptr, ...) @expert_add_info_format(ptr noundef %69, ptr noundef %70, ptr noundef @ei_invalid_range, ptr noundef @.str.2130)
  br label %72

72:                                               ; preds = %68, %62
  %73 = load ptr, ptr %3, align 8
  %74 = load i32, ptr @hf_nfapi_sounding_reference_cyclic_shift, align 4
  %75 = call ptr @ptvcursor_add_ret_uint(ptr noundef %73, i32 noundef %74, i32 noundef 1, i32 noundef 0, ptr noundef %6)
  store ptr %75, ptr %5, align 8
  %76 = load i32, ptr %6, align 4
  %77 = icmp ugt i32 %76, 11
  br i1 %77, label %78, label %82

78:                                               ; preds = %72
  %79 = load ptr, ptr %4, align 8
  %80 = load ptr, ptr %5, align 8
  %81 = call ptr (ptr, ptr, ptr, ptr, ...) @expert_add_info_format(ptr noundef %79, ptr noundef %80, ptr noundef @ei_invalid_range, ptr noundef @.str.2131)
  br label %82

82:                                               ; preds = %78, %72
  ret void
}