; Function Attrs: nounwind uwtable
define internal void @dissect_ul_config_srs_info_rel8_value(ptr noundef %0, ptr noundef %1) #0 {
  %3 = alloca i32, align 4
  %4 = load i32, ptr @hf_nfapi_handle, align 4
  %5 = tail call ptr @ptvcursor_add(ptr noundef %0, i32 noundef %4, i32 noundef 4, i32 noundef 0) #7
  %6 = load i32, ptr @hf_nfapi_size, align 4
  %7 = tail call ptr @ptvcursor_add(ptr noundef %0, i32 noundef %6, i32 noundef 2, i32 noundef 0) #7
  %8 = load i32, ptr @hf_nfapi_rnti, align 4
  %9 = call ptr @ptvcursor_add_ret_uint(ptr noundef %0, i32 noundef %8, i32 noundef 2, i32 noundef 0, ptr noundef nonnull %3) #7
  %10 = load i32, ptr %3, align 4
  %11 = icmp eq i32 %10, 0
  br i1 %11, label %12, label %14

12:                                               ; preds = %2
  %13 = call ptr (ptr, ptr, ptr, ptr, ...) @expert_add_info_format(ptr noundef %1, ptr noundef %9, ptr noundef nonnull @ei_invalid_range, ptr noundef nonnull @.str.2006) #7
  br label %14

14:                                               ; preds = %12, %2
  %15 = load i32, ptr @hf_nfapi_srs_bandwidth, align 4
  %16 = call ptr @ptvcursor_add_ret_uint(ptr noundef %0, i32 noundef %15, i32 noundef 1, i32 noundef 0, ptr noundef nonnull %3) #7
  %17 = load i32, ptr %3, align 4
  %18 = icmp ugt i32 %17, 3
  br i1 %18, label %19, label %21

19:                                               ; preds = %14
  %20 = call ptr (ptr, ptr, ptr, ptr, ...) @expert_add_info_format(ptr noundef %1, ptr noundef %16, ptr noundef nonnull @ei_invalid_range, ptr noundef nonnull @.str.2126) #7
  br label %21

21:                                               ; preds = %19, %14
  %22 = load i32, ptr @hf_nfapi_frequency_domain_position, align 4
  %23 = call ptr @ptvcursor_add_ret_uint(ptr noundef %0, i32 noundef %22, i32 noundef 1, i32 noundef 0, ptr noundef nonnull %3) #7
  %24 = load i32, ptr %3, align 4
  %25 = icmp ugt i32 %24, 23
  br i1 %25, label %26, label %28

26:                                               ; preds = %21
  %27 = call ptr (ptr, ptr, ptr, ptr, ...) @expert_add_info_format(ptr noundef %1, ptr noundef %23, ptr noundef nonnull @ei_invalid_range, ptr noundef nonnull @.str.2127) #7
  br label %28

28:                                               ; preds = %26, %21
  %29 = load i32, ptr @hf_nfapi_srs_hopping_bandwidth, align 4
  %30 = call ptr @ptvcursor_add_ret_uint(ptr noundef %0, i32 noundef %29, i32 noundef 1, i32 noundef 0, ptr noundef nonnull %3) #7
  %31 = load i32, ptr %3, align 4
  %32 = icmp ugt i32 %31, 3
  br i1 %32, label %33, label %35

33:                                               ; preds = %28
  %34 = call ptr (ptr, ptr, ptr, ptr, ...) @expert_add_info_format(ptr noundef %1, ptr noundef %30, ptr noundef nonnull @ei_invalid_range, ptr noundef nonnull @.str.2128) #7
  br label %35

35:                                               ; preds = %33, %28
  %36 = load i32, ptr @hf_nfapi_transmission_comb, align 4
  %37 = call ptr @ptvcursor_add_ret_uint(ptr noundef %0, i32 noundef %36, i32 noundef 1, i32 noundef 0, ptr noundef nonnull %3) #7
  %38 = load i32, ptr %3, align 4
  %39 = icmp ugt i32 %38, 3
  br i1 %39, label %40, label %42

40:                                               ; preds = %35
  %41 = call ptr (ptr, ptr, ptr, ptr, ...) @expert_add_info_format(ptr noundef %1, ptr noundef %37, ptr noundef nonnull @ei_invalid_range, ptr noundef nonnull @.str.2129) #7
  br label %42

42:                                               ; preds = %40, %35
  %43 = load i32, ptr @hf_nfapi_i_srs, align 4
  %44 = call ptr @ptvcursor_add_ret_uint(ptr noundef %0, i32 noundef %43, i32 noundef 2, i32 noundef 0, ptr noundef nonnull %3) #7
  %45 = load i32, ptr %3, align 4
  %46 = icmp ugt i32 %45, 1023
  br i1 %46, label %47, label %49

47:                                               ; preds = %42
  %48 = call ptr (ptr, ptr, ptr, ptr, ...) @expert_add_info_format(ptr noundef %1, ptr noundef %44, ptr noundef nonnull @ei_invalid_range, ptr noundef nonnull @.str.2130) #7
  br label %49

49:                                               ; preds = %47, %42
  %50 = load i32, ptr @hf_nfapi_sounding_reference_cyclic_shift, align 4
  %51 = call ptr @ptvcursor_add_ret_uint(ptr noundef %0, i32 noundef %50, i32 noundef 1, i32 noundef 0, ptr noundef nonnull %3) #7
  %52 = load i32, ptr %3, align 4
  %53 = icmp ugt i32 %52, 11
  br i1 %53, label %54, label %56

54:                                               ; preds = %49
  %55 = call ptr (ptr, ptr, ptr, ptr, ...) @expert_add_info_format(ptr noundef %1, ptr noundef %51, ptr noundef nonnull @ei_invalid_range, ptr noundef nonnull @.str.2131) #7
  br label %56

56:                                               ; preds = %54, %49
  ret void
}